; ModuleID = 'source-C-CXX/44/452.c'
source_filename = "source-C-CXX/44/452.c"
target datalayout = "e-m:e-p270:32:32-p271:32:32-p272:64:64-i64:64-f80:128-n8:16:32:64-S128"
target triple = "x86_64-pc-linux-gnu"

@.str = private unnamed_addr constant [6 x i8] c"%s %s\00", align 1
@.str.1 = private unnamed_addr constant [3 x i8] c"%d\00", align 1

; Function Attrs: nofree nounwind sspstrong uwtable
define dso_local void @main() local_unnamed_addr #0 {
  %1 = alloca [50 x i8], align 16
  %2 = alloca [50 x i8], align 16
  %3 = getelementptr inbounds [50 x i8], [50 x i8]* %1, i64 0, i64 0
  call void @llvm.lifetime.start.p0i8(i64 50, i8* nonnull %3) #4
  %4 = getelementptr inbounds [50 x i8], [50 x i8]* %2, i64 0, i64 0
  call void @llvm.lifetime.start.p0i8(i64 50, i8* nonnull %4) #4
  %5 = call i32 (i8*, ...) @__isoc99_scanf(i8* getelementptr inbounds ([6 x i8], [6 x i8]* @.str, i64 0, i64 0), i8* nonnull %3, i8* nonnull %4)
  %6 = call i64 @strlen(i8* noundef nonnull %3) #5
  %7 = call i64 @strlen(i8* noundef nonnull %4) #5
  %8 = shl i64 %7, 32
  %9 = ashr exact i64 %8, 32
  %10 = getelementptr inbounds [50 x i8], [50 x i8]* %2, i64 0, i64 %9
  %11 = shl i64 %6, 32
  %12 = ashr exact i64 %11, 32
  %13 = getelementptr inbounds [50 x i8], [50 x i8]* %1, i64 0, i64 %12
  %14 = icmp sgt i64 %8, 0
  br i1 %14, label %15, label %35

15:                                               ; preds = %0
  %16 = load i8, i8* %3, align 16, !tbaa !5
  br label %17

17:                                               ; preds = %15, %30
  %18 = phi i8 [ %31, %30 ], [ %16, %15 ]
  %19 = phi i32 [ %22, %30 ], [ 0, %15 ]
  %20 = phi i8* [ %33, %30 ], [ %4, %15 ]
  %21 = phi i8* [ %32, %30 ], [ %3, %15 ]
  %22 = add nuw nsw i32 %19, 1
  %23 = load i8, i8* %20, align 1, !tbaa !5
  %24 = icmp eq i8 %18, %23
  br i1 %24, label %25, label %30

25:                                               ; preds = %17
  %26 = getelementptr inbounds i8, i8* %21, i64 1
  %27 = load i8, i8* %26, align 1, !tbaa !5
  %28 = load i8, i8* %13, align 1, !tbaa !5
  %29 = icmp eq i8 %27, %28
  br i1 %29, label %35, label %30

30:                                               ; preds = %25, %17
  %31 = phi i8 [ %18, %17 ], [ %27, %25 ]
  %32 = phi i8* [ %21, %17 ], [ %26, %25 ]
  %33 = getelementptr inbounds i8, i8* %20, i64 1
  %34 = icmp ult i8* %33, %10
  br i1 %34, label %17, label %35, !llvm.loop !8

35:                                               ; preds = %30, %25, %0
  %36 = phi i32 [ 0, %0 ], [ %22, %25 ], [ %22, %30 ]
  %37 = trunc i64 %6 to i32
  %38 = sub nsw i32 %36, %37
  %39 = call i32 (i8*, ...) @printf(i8* nonnull dereferenceable(1) getelementptr inbounds ([3 x i8], [3 x i8]* @.str.1, i64 0, i64 0), i32 %38)
  call void @llvm.lifetime.end.p0i8(i64 50, i8* nonnull %4) #4
  call void @llvm.lifetime.end.p0i8(i64 50, i8* nonnull %3) #4
  ret void
}

; Function Attrs: argmemonly mustprogress nofree nosync nounwind willreturn
declare void @llvm.lifetime.start.p0i8(i64 immarg, i8* nocapture) #1

; Function Attrs: nofree nounwind
declare noundef i32 @__isoc99_scanf(i8* nocapture noundef readonly, ...) local_unnamed_addr #2

; Function Attrs: argmemonly mustprogress nofree nounwind readonly willreturn
declare i64 @strlen(i8* nocapture) local_unnamed_addr #3

; Function Attrs: nofree nounwind
declare noundef i32 @printf(i8* nocapture noundef readonly, ...) local_unnamed_addr #2

; Function Attrs: argmemonly mustprogress nofree nosync nounwind willreturn
declare void @llvm.lifetime.end.p0i8(i64 immarg, i8* nocapture) #1


!llvm.module.flags = !{!0, !1, !2, !3}
!llvm.ident = !{!4}

!0 = !{i32 1, !"wchar_size", i32 4}
!1 = !{i32 7, !"PIC Level", i32 2}
!2 = !{i32 7, !"PIE Level", i32 2}
!3 = !{i32 7, !"uwtable", i32 1}
!4 = !{!"clang version 13.0.0"}
!5 = !{!6, !6, i64 0}
!6 = !{!"omnipotent char", !7, i64 0}
!7 = !{!"Simple C/C++ TBAA"}
!8 = distinct !{!8, !9}
!9 = !{!"llvm.loop.mustprogress"}
